target datalayout = "e-m:e-p270:32:32-p271:32:32-p272:64:64-i64:64-i128:128-f80:128-n8:16:32:64-S128"
target triple = "x86_64-pc-linux-gnu"

%"struct.Luau::TypePackVar" = type { %"class.Luau::Variant", i8, ptr }
%"class.Luau::Variant" = type { i32, [4 x i8], [64 x i8] }
%"struct.Luau::VariadicTypePack" = type <{ ptr, i8, [7 x i8] }>
%"struct.Luau::PendingTypePack" = type { %"struct.Luau::TypePackVar" }

; Function Attrs: mustprogress nounwind uwtable
define linkonce_odr dso_local noundef ptr @_ZN4Luau7VariantIJNS_9Unifiable5BoundIPKNS_11TypePackVarEEENS1_5ErrorIS5_EENS_12FreeTypePackENS_15GenericTypePackENS_8TypePackENS_16VariadicTypePackENS_15BlockedTypePackENS_28TypeFunctionInstanceTypePackEEE6get_ifISC_EEPT_v(ptr noundef nonnull align 8 dereferenceable(72) %0) #7 comdat align 2 {
  %2 = alloca ptr, align 8
  %3 = alloca i32, align 4
  store ptr %0, ptr %2, align 8, !tbaa !48
  %4 = load ptr, ptr %2, align 8
  call void @llvm.lifetime.start.p0(i64 4, ptr %3) #17
  store i32 5, ptr %3, align 4, !tbaa !4
  %5 = getelementptr inbounds nuw %"class.Luau::Variant", ptr %4, i32 0, i32 0
  %6 = load i32, ptr %5, align 8, !tbaa !55
  %7 = icmp eq i32 5, %6
  br i1 %7, label %8, label %10

8:                                                ; preds = %1
  %9 = getelementptr inbounds nuw %"class.Luau::Variant", ptr %4, i32 0, i32 2
  br label %11

10:                                               ; preds = %1
  br label %11

11:                                               ; preds = %10, %8
  %12 = phi ptr [ %9, %8 ], [ null, %10 ]
  call void @llvm.lifetime.end.p0(i64 4, ptr %3) #17
  ret ptr %12
}

; Function Attrs: mustprogress nounwind uwtable
define linkonce_odr dso_local noundef ptr @_ZN4Luau7VariantIJNS_9Unifiable5BoundIPKNS_11TypePackVarEEENS1_5ErrorIS5_EENS_12FreeTypePackENS_15GenericTypePackENS_8TypePackENS_16VariadicTypePackENS_15BlockedTypePackENS_28TypeFunctionInstanceTypePackEEE6get_ifISA_EEPT_v(ptr noundef nonnull align 8 dereferenceable(72) %0) #7 comdat align 2 {
  %2 = alloca ptr, align 8
  %3 = alloca i32, align 4
  store ptr %0, ptr %2, align 8, !tbaa !48
  %4 = load ptr, ptr %2, align 8
  call void @llvm.lifetime.start.p0(i64 4, ptr %3) #17
  store i32 3, ptr %3, align 4, !tbaa !4
  %5 = getelementptr inbounds nuw %"class.Luau::Variant", ptr %4, i32 0, i32 0
  %6 = load i32, ptr %5, align 8, !tbaa !55
  %7 = icmp eq i32 3, %6
  br i1 %7, label %8, label %10

8:                                                ; preds = %1
  %9 = getelementptr inbounds nuw %"class.Luau::Variant", ptr %4, i32 0, i32 2
  br label %11

10:                                               ; preds = %1
  br label %11

11:                                               ; preds = %10, %8
  %12 = phi ptr [ %9, %8 ], [ null, %10 ]
  call void @llvm.lifetime.end.p0(i64 4, ptr %3) #17
  ret ptr %12
}

; Function Attrs: mustprogress uwtable
define linkonce_odr dso_local noundef ptr @_ZN4Luau6get_ifINS_16VariadicTypePackEJNS_9Unifiable5BoundIPKNS_11TypePackVarEEENS2_5ErrorIS6_EENS_12FreeTypePackENS_15GenericTypePackENS_8TypePackES1_NS_15BlockedTypePackENS_28TypeFunctionInstanceTypePackEEEEPT_PNS_7VariantIJDpT0_EEE(ptr noundef %0) #2 comdat {
  %2 = alloca ptr, align 8
  store ptr %0, ptr %2, align 8, !tbaa !48
  %3 = load ptr, ptr %2, align 8, !tbaa !48
  %4 = icmp ne ptr %3, null
  br i1 %4, label %5, label %8

5:                                                ; preds = %1
  %6 = load ptr, ptr %2, align 8, !tbaa !48
  %7 = call noundef ptr @_ZN4Luau7VariantIJNS_9Unifiable5BoundIPKNS_11TypePackVarEEENS1_5ErrorIS5_EENS_12FreeTypePackENS_15GenericTypePackENS_8TypePackENS_16VariadicTypePackENS_15BlockedTypePackENS_28TypeFunctionInstanceTypePackEEE6get_ifISC_EEPT_v(ptr noundef nonnull align 8 dereferenceable(72) %6)
  br label %9

8:                                                ; preds = %1
  br label %9

9:                                                ; preds = %8, %5
  %10 = phi ptr [ %7, %5 ], [ null, %8 ]
  ret ptr %10
}

; Function Attrs: mustprogress uwtable
define linkonce_odr dso_local noundef ptr @_ZN4Luau6get_ifINS_15GenericTypePackEJNS_9Unifiable5BoundIPKNS_11TypePackVarEEENS2_5ErrorIS6_EENS_12FreeTypePackES1_NS_8TypePackENS_16VariadicTypePackENS_15BlockedTypePackENS_28TypeFunctionInstanceTypePackEEEEPT_PNS_7VariantIJDpT0_EEE(ptr noundef %0) #2 comdat {
  %2 = alloca ptr, align 8
  store ptr %0, ptr %2, align 8, !tbaa !48
  %3 = load ptr, ptr %2, align 8, !tbaa !48
  %4 = icmp ne ptr %3, null
  br i1 %4, label %5, label %8

5:                                                ; preds = %1
  %6 = load ptr, ptr %2, align 8, !tbaa !48
  %7 = call noundef ptr @_ZN4Luau7VariantIJNS_9Unifiable5BoundIPKNS_11TypePackVarEEENS1_5ErrorIS5_EENS_12FreeTypePackENS_15GenericTypePackENS_8TypePackENS_16VariadicTypePackENS_15BlockedTypePackENS_28TypeFunctionInstanceTypePackEEE6get_ifISA_EEPT_v(ptr noundef nonnull align 8 dereferenceable(72) %6)
  br label %9

8:                                                ; preds = %1
  br label %9

9:                                                ; preds = %8, %5
  %10 = phi ptr [ %7, %5 ], [ null, %8 ]
  ret ptr %10
}

; Function Attrs: mustprogress nounwind uwtable
define dso_local noundef ptr @_ZN4Luau9asMutableEPKNS_11TypePackVarE(ptr noundef %0) #7 {
  %2 = alloca ptr, align 8
  store ptr %0, ptr %2, align 8, !tbaa !46
  %3 = load ptr, ptr %2, align 8, !tbaa !46
  ret ptr %3
}

; Function Attrs: mustprogress uwtable
define linkonce_odr dso_local noundef ptr @_ZN4Luau10getMutableINS_16VariadicTypePackEEEPT_PKNS_11TypePackVarE(ptr noundef %0) #2 comdat {
  %2 = alloca ptr, align 8
  store ptr %0, ptr %2, align 8, !tbaa !46
  %3 = load ptr, ptr %2, align 8, !tbaa !46
  %4 = call noundef ptr @_ZN4Luau9asMutableEPKNS_11TypePackVarE(ptr noundef %3)
  %5 = getelementptr inbounds nuw %"struct.Luau::TypePackVar", ptr %4, i32 0, i32 0
  %6 = call noundef ptr @_ZN4Luau6get_ifINS_16VariadicTypePackEJNS_9Unifiable5BoundIPKNS_11TypePackVarEEENS2_5ErrorIS6_EENS_12FreeTypePackENS_15GenericTypePackENS_8TypePackES1_NS_15BlockedTypePackENS_28TypeFunctionInstanceTypePackEEEEPT_PNS_7VariantIJDpT0_EEE(ptr noundef %5)
  ret ptr %6
}

; Function Attrs: mustprogress uwtable
define linkonce_odr dso_local noundef ptr @_ZN4Luau10getMutableINS_16VariadicTypePackEEEPT_PNS_15PendingTypePackE(ptr noundef %0) #2 comdat {
  %2 = alloca ptr, align 8
  store ptr %0, ptr %2, align 8, !tbaa !86
  %3 = load ptr, ptr %2, align 8, !tbaa !86
  %4 = getelementptr inbounds nuw %"struct.Luau::PendingTypePack", ptr %3, i32 0, i32 0
  %5 = call noundef ptr @_ZN4Luau10getMutableINS_16VariadicTypePackEEEPT_PKNS_11TypePackVarE(ptr noundef %4)
  ret ptr %5
}

; Function Attrs: mustprogress uwtable
define linkonce_odr dso_local noundef ptr @_ZN4Luau10getMutableINS_15GenericTypePackEEEPT_PKNS_11TypePackVarE(ptr noundef %0) #2 comdat {
  %2 = alloca ptr, align 8
  store ptr %0, ptr %2, align 8, !tbaa !46
  %3 = load ptr, ptr %2, align 8, !tbaa !46
  %4 = call noundef ptr @_ZN4Luau9asMutableEPKNS_11TypePackVarE(ptr noundef %3)
  %5 = getelementptr inbounds nuw %"struct.Luau::TypePackVar", ptr %4, i32 0, i32 0
  %6 = call noundef ptr @_ZN4Luau6get_ifINS_15GenericTypePackEJNS_9Unifiable5BoundIPKNS_11TypePackVarEEENS2_5ErrorIS6_EENS_12FreeTypePackES1_NS_8TypePackENS_16VariadicTypePackENS_15BlockedTypePackENS_28TypeFunctionInstanceTypePackEEEEPT_PNS_7VariantIJDpT0_EEE(ptr noundef %5)
  ret ptr %6
}

; Function Attrs: mustprogress uwtable
define linkonce_odr dso_local noundef ptr @_ZN4Luau10getMutableINS_15GenericTypePackEEEPT_PNS_15PendingTypePackE(ptr noundef %0) #2 comdat {
  %2 = alloca ptr, align 8
  store ptr %0, ptr %2, align 8, !tbaa !86
  %3 = load ptr, ptr %2, align 8, !tbaa !86
  %4 = getelementptr inbounds nuw %"struct.Luau::PendingTypePack", ptr %3, i32 0, i32 0
  %5 = call noundef ptr @_ZN4Luau10getMutableINS_15GenericTypePackEEEPT_PKNS_11TypePackVarE(ptr noundef %4)
  ret ptr %5
}

; Function Attrs: mustprogress uwtable
define linkonce_odr dso_local noundef ptr @_ZNK4Luau6TxnLog10getMutableINS_16VariadicTypePackEPKNS_11TypePackVarEEEPT_T0_(ptr noundef nonnull align 8 dereferenceable(128) %0, ptr noundef %1) #2 comdat align 2 {
  %3 = alloca ptr, align 8
  %4 = alloca ptr, align 8
  %5 = alloca ptr, align 8
  %6 = alloca ptr, align 8
  %7 = alloca i32, align 4
  store ptr %0, ptr %4, align 8, !tbaa !73
  store ptr %1, ptr %5, align 8, !tbaa !46
  %8 = load ptr, ptr %4, align 8
  call void @llvm.lifetime.start.p0(i64 8, ptr %6) #17
  %9 = load ptr, ptr %5, align 8, !tbaa !46
  %10 = call noundef ptr @_ZNK4Luau6TxnLog7pendingEPKNS_11TypePackVarE(ptr noundef nonnull align 8 dereferenceable(128) %8, ptr noundef %9)
  store ptr %10, ptr %6, align 8, !tbaa !86
  %11 = load ptr, ptr %6, align 8, !tbaa !86
  %12 = icmp ne ptr %11, null
  br i1 %12, label %13, label %16

13:                                               ; preds = %2
  %14 = load ptr, ptr %6, align 8, !tbaa !86
  %15 = call noundef ptr @_ZN4Luau10getMutableINS_16VariadicTypePackEEEPT_PNS_15PendingTypePackE(ptr noundef %14)
  store ptr %15, ptr %3, align 8
  store i32 1, ptr %7, align 4
  br label %19

16:                                               ; preds = %2
  %17 = load ptr, ptr %5, align 8, !tbaa !46
  %18 = call noundef ptr @_ZN4Luau10getMutableINS_16VariadicTypePackEEEPT_PKNS_11TypePackVarE(ptr noundef %17)
  store ptr %18, ptr %3, align 8
  store i32 1, ptr %7, align 4
  br label %19

19:                                               ; preds = %16, %13
  call void @llvm.lifetime.end.p0(i64 8, ptr %6) #17
  %20 = load ptr, ptr %3, align 8
  ret ptr %20
}

; Function Attrs: mustprogress uwtable
define linkonce_odr dso_local noundef ptr @_ZNK4Luau6TxnLog10getMutableINS_15GenericTypePackEPKNS_11TypePackVarEEEPT_T0_(ptr noundef nonnull align 8 dereferenceable(128) %0, ptr noundef %1) #2 comdat align 2 {
  %3 = alloca ptr, align 8
  %4 = alloca ptr, align 8
  %5 = alloca ptr, align 8
  %6 = alloca ptr, align 8
  %7 = alloca i32, align 4
  store ptr %0, ptr %4, align 8, !tbaa !73
  store ptr %1, ptr %5, align 8, !tbaa !46
  %8 = load ptr, ptr %4, align 8
  call void @llvm.lifetime.start.p0(i64 8, ptr %6) #17
  %9 = load ptr, ptr %5, align 8, !tbaa !46
  %10 = call noundef ptr @_ZNK4Luau6TxnLog7pendingEPKNS_11TypePackVarE(ptr noundef nonnull align 8 dereferenceable(128) %8, ptr noundef %9)
  store ptr %10, ptr %6, align 8, !tbaa !86
  %11 = load ptr, ptr %6, align 8, !tbaa !86
  %12 = icmp ne ptr %11, null
  br i1 %12, label %13, label %16

13:                                               ; preds = %2
  %14 = load ptr, ptr %6, align 8, !tbaa !86
  %15 = call noundef ptr @_ZN4Luau10getMutableINS_15GenericTypePackEEEPT_PNS_15PendingTypePackE(ptr noundef %14)
  store ptr %15, ptr %3, align 8
  store i32 1, ptr %7, align 4
  br label %19

16:                                               ; preds = %2
  %17 = load ptr, ptr %5, align 8, !tbaa !46
  %18 = call noundef ptr @_ZN4Luau10getMutableINS_15GenericTypePackEEEPT_PKNS_11TypePackVarE(ptr noundef %17)
  store ptr %18, ptr %3, align 8
  store i32 1, ptr %7, align 4
  br label %19

19:                                               ; preds = %16, %13
  call void @llvm.lifetime.end.p0(i64 8, ptr %6) #17
  %20 = load ptr, ptr %3, align 8
  ret ptr %20
}

; Function Attrs: mustprogress uwtable
define linkonce_odr dso_local noundef ptr @_ZNK4Luau6TxnLog3getINS_16VariadicTypePackEPKNS_11TypePackVarEEEPKT_T0_(ptr noundef nonnull align 8 dereferenceable(128) %0, ptr noundef %1) #2 comdat align 2 {
  %3 = alloca ptr, align 8
  %4 = alloca ptr, align 8
  store ptr %0, ptr %3, align 8, !tbaa !73
  store ptr %1, ptr %4, align 8, !tbaa !46
  %5 = load ptr, ptr %3, align 8
  %6 = load ptr, ptr %4, align 8, !tbaa !46
  %7 = call noundef ptr @_ZNK4Luau6TxnLog10getMutableINS_16VariadicTypePackEPKNS_11TypePackVarEEEPT_T0_(ptr noundef nonnull align 8 dereferenceable(128) %5, ptr noundef %6)
  ret ptr %7
}

; Function Attrs: mustprogress uwtable
define linkonce_odr dso_local noundef ptr @_ZNK4Luau6TxnLog3getINS_15GenericTypePackEPKNS_11TypePackVarEEEPKT_T0_(ptr noundef nonnull align 8 dereferenceable(128) %0, ptr noundef %1) #2 comdat align 2 {
  %3 = alloca ptr, align 8
  %4 = alloca ptr, align 8
  store ptr %0, ptr %3, align 8, !tbaa !73
  store ptr %1, ptr %4, align 8, !tbaa !46
  %5 = load ptr, ptr %3, align 8
  %6 = load ptr, ptr %4, align 8, !tbaa !46
  %7 = call noundef ptr @_ZNK4Luau6TxnLog10getMutableINS_15GenericTypePackEPKNS_11TypePackVarEEEPT_T0_(ptr noundef nonnull align 8 dereferenceable(128) %5, ptr noundef %6)
  ret ptr %7
}

; Function Attrs: mustprogress uwtable
define dso_local noundef zeroext i1 @_ZN4Luau14isVariadicTailEPKNS_11TypePackVarERKNS_6TxnLogEb(ptr noundef %0, ptr noundef nonnull align 8 dereferenceable(128) %1, i1 noundef zeroext %2) #2 {
  %4 = alloca i1, align 1
  %5 = alloca ptr, align 8
  %6 = alloca ptr, align 8
  %7 = alloca i8, align 1
  %8 = alloca ptr, align 8
  %9 = alloca i32, align 4
  store ptr %0, ptr %5, align 8, !tbaa !46
  store ptr %1, ptr %6, align 8, !tbaa !73
  %10 = zext i1 %2 to i8
  store i8 %10, ptr %7, align 1, !tbaa !36
  %11 = load ptr, ptr %6, align 8, !tbaa !73
  %12 = load ptr, ptr %5, align 8, !tbaa !46
  %13 = call noundef ptr @_ZNK4Luau6TxnLog3getINS_15GenericTypePackEPKNS_11TypePackVarEEEPKT_T0_(ptr noundef nonnull align 8 dereferenceable(128) %11, ptr noundef %12)
  %14 = icmp ne ptr %13, null
  br i1 %14, label %15, label %16

15:                                               ; preds = %3
  store i1 true, ptr %4, align 1
  br label %35

16:                                               ; preds = %3
  call void @llvm.lifetime.start.p0(i64 8, ptr %8) #17
  %17 = load ptr, ptr %6, align 8, !tbaa !73
  %18 = load ptr, ptr %5, align 8, !tbaa !46
  %19 = call noundef ptr @_ZNK4Luau6TxnLog3getINS_16VariadicTypePackEPKNS_11TypePackVarEEEPKT_T0_(ptr noundef nonnull align 8 dereferenceable(128) %17, ptr noundef %18)
  store ptr %19, ptr %8, align 8, !tbaa !67
  %20 = load ptr, ptr %8, align 8, !tbaa !67
  %21 = icmp ne ptr %20, null
  br i1 %21, label %22, label %31

22:                                               ; preds = %16
  %23 = load i8, ptr %7, align 1, !tbaa !36, !range !37, !noundef !38
  %24 = trunc i8 %23 to i1
  br i1 %24, label %30, label %25

25:                                               ; preds = %22
  %26 = load ptr, ptr %8, align 8, !tbaa !67
  %27 = getelementptr inbounds nuw %"struct.Luau::VariadicTypePack", ptr %26, i32 0, i32 1
  %28 = load i8, ptr %27, align 8, !tbaa !110, !range !37, !noundef !38
  %29 = trunc i8 %28 to i1
  br i1 %29, label %31, label %30

30:                                               ; preds = %25, %22
  store i1 true, ptr %4, align 1
  store i32 1, ptr %9, align 4
  br label %32

31:                                               ; preds = %25, %16
  store i32 0, ptr %9, align 4
  br label %32

32:                                               ; preds = %31, %30
  call void @llvm.lifetime.end.p0(i64 8, ptr %8) #17
  %33 = load i32, ptr %9, align 4
  switch i32 %33, label %37 [
    i32 0, label %34
    i32 1, label %35
  ]

34:                                               ; preds = %32
  store i1 false, ptr %4, align 1
  br label %35

35:                                               ; preds = %34, %32, %15
  %36 = load i1, ptr %4, align 1
  ret i1 %36

37:                                               ; preds = %32
  unreachable
}