; Function Attrs: mustprogress uwtable
define dso_local noundef zeroext i1 @_ZN4Luau14isVariadicTailEPKNS_11TypePackVarERKNS_6TxnLogEb(ptr noundef %0, ptr noundef nonnull align 8 dereferenceable(128) %1, i1 noundef zeroext %2) local_unnamed_addr #2 {
  %4 = tail call noundef ptr @_ZNK4Luau6TxnLog7pendingEPKNS_11TypePackVarE(ptr noundef nonnull align 8 dereferenceable(128) %1, ptr noundef %0)
  %.not.i.i = icmp eq ptr %4, null
  br i1 %.not.i.i, label %5, label %_ZN4Luau10getMutableINS_15GenericTypePackEEEPT_PKNS_11TypePackVarE.exit.sink.split.i.i

5:                                                ; preds = %3
  %.not.i.i.i.i = icmp eq ptr %0, null
  br i1 %.not.i.i.i.i, label %.thread, label %_ZN4Luau10getMutableINS_15GenericTypePackEEEPT_PKNS_11TypePackVarE.exit.sink.split.i.i

_ZN4Luau10getMutableINS_15GenericTypePackEEEPT_PKNS_11TypePackVarE.exit.sink.split.i.i: ; preds = %5, %3
  %.sink.i.i = phi ptr [ %4, %3 ], [ %0, %5 ]
  %6 = load i32, ptr %.sink.i.i, align 8, !tbaa !49
  %7 = icmp eq i32 %6, 3
  br i1 %7, label %_ZNK4Luau6TxnLog3getINS_15GenericTypePackEPKNS_11TypePackVarEEEPKT_T0_.exit, label %8

8:                                                ; preds = %_ZN4Luau10getMutableINS_15GenericTypePackEEEPT_PKNS_11TypePackVarE.exit.sink.split.i.i
  %9 = tail call noundef ptr @_ZNK4Luau6TxnLog7pendingEPKNS_11TypePackVarE(ptr noundef nonnull align 8 dereferenceable(128) %1, ptr noundef %0)
  %.not.i.i11 = icmp eq ptr %9, null
  br i1 %.not.i.i11, label %11, label %_ZN4Luau10getMutableINS_16VariadicTypePackEEEPT_PKNS_11TypePackVarE.exit.sink.split.i.i

.thread:                                          ; preds = %5
  %10 = tail call noundef ptr @_ZNK4Luau6TxnLog7pendingEPKNS_11TypePackVarE(ptr noundef nonnull align 8 dereferenceable(128) %1, ptr noundef null)
  %.not.i.i1117 = icmp eq ptr %10, null
  br i1 %.not.i.i1117, label %_ZNK4Luau6TxnLog3getINS_15GenericTypePackEPKNS_11TypePackVarEEEPKT_T0_.exit, label %_ZN4Luau10getMutableINS_16VariadicTypePackEEEPT_PKNS_11TypePackVarE.exit.sink.split.i.i

11:                                               ; preds = %8
  %.not.i.i.i.i14 = icmp eq ptr %0, null
  br i1 %.not.i.i.i.i14, label %_ZNK4Luau6TxnLog3getINS_15GenericTypePackEPKNS_11TypePackVarEEEPKT_T0_.exit, label %_ZN4Luau10getMutableINS_16VariadicTypePackEEEPT_PKNS_11TypePackVarE.exit.sink.split.i.i

_ZN4Luau10getMutableINS_16VariadicTypePackEEEPT_PKNS_11TypePackVarE.exit.sink.split.i.i: ; preds = %.thread, %11, %8
  %.sink.i.i12 = phi ptr [ %9, %8 ], [ %0, %11 ], [ %10, %.thread ]
  %12 = load i32, ptr %.sink.i.i12, align 8, !tbaa !49
  %13 = icmp eq i32 %12, 5
  br i1 %13, label %_ZNK4Luau6TxnLog3getINS_16VariadicTypePackEPKNS_11TypePackVarEEEPKT_T0_.exit, label %_ZNK4Luau6TxnLog3getINS_15GenericTypePackEPKNS_11TypePackVarEEEPKT_T0_.exit

_ZNK4Luau6TxnLog3getINS_16VariadicTypePackEPKNS_11TypePackVarEEEPKT_T0_.exit: ; preds = %_ZN4Luau10getMutableINS_16VariadicTypePackEEEPT_PKNS_11TypePackVarE.exit.sink.split.i.i
  br i1 %2, label %.thread23, label %14

14:                                               ; preds = %_ZNK4Luau6TxnLog3getINS_16VariadicTypePackEPKNS_11TypePackVarEEEPKT_T0_.exit
  %15 = getelementptr inbounds nuw i8, ptr %.sink.i.i12, i64 16
  %16 = load i8, ptr %15, align 8, !tbaa !111, !range !74, !noundef !75
  %17 = trunc nuw i8 %16 to i1
  br i1 %17, label %_ZNK4Luau6TxnLog3getINS_15GenericTypePackEPKNS_11TypePackVarEEEPKT_T0_.exit, label %.thread23

.thread23:                                        ; preds = %14, %_ZNK4Luau6TxnLog3getINS_16VariadicTypePackEPKNS_11TypePackVarEEEPKT_T0_.exit
  br label %_ZNK4Luau6TxnLog3getINS_15GenericTypePackEPKNS_11TypePackVarEEEPKT_T0_.exit

_ZNK4Luau6TxnLog3getINS_15GenericTypePackEPKNS_11TypePackVarEEEPKT_T0_.exit: ; preds = %.thread, %_ZN4Luau10getMutableINS_16VariadicTypePackEEEPT_PKNS_11TypePackVarE.exit.sink.split.i.i, %11, %.thread23, %14, %_ZN4Luau10getMutableINS_15GenericTypePackEEEPT_PKNS_11TypePackVarE.exit.sink.split.i.i
  %.08 = phi i1 [ true, %_ZN4Luau10getMutableINS_15GenericTypePackEEEPT_PKNS_11TypePackVarE.exit.sink.split.i.i ], [ true, %.thread23 ], [ false, %14 ], [ false, %11 ], [ false, %_ZN4Luau10getMutableINS_16VariadicTypePackEEEPT_PKNS_11TypePackVarE.exit.sink.split.i.i ], [ false, %.thread ]
  ret i1 %.08
}